target datalayout = "e-m:e-p270:32:32-p271:32:32-p272:64:64-i64:64-i128:128-f80:128-n8:16:32:64-S128"
target triple = "x86_64-pc-linux-gnu"

%union.pthread_mutex_t = type { %struct.__pthread_mutex_s }
%struct.__pthread_mutex_s = type { i32, i32, i32, i32, i32, i16, i16, %struct.__pthread_internal_list }
%struct.__pthread_internal_list = type { ptr, ptr }
%struct.settings = type { i64, i32, i32, i32, ptr, i32, i32, i32, ptr, ptr, i32, double, i32, i32, i32, i8, i32, i32, i8, i32, i32, i32, i32, i32, i32, i8, i8, i8, i8, i8, i8, i8, i32, i32, double, double, i32, i32, i8, i32, i8, i8, ptr, i32, i32, i32, i32, double, double, i32, i8, i32, i32, i32, i32, i32, i8, i8, i8, ptr, i32, i32, i32, i32, i32, i32, i32, i32, i32, i32, double, i8, i32, i32, ptr, i32 }
%struct.timeval = type { i64, i64 }
%struct.LIBEVENT_THREAD = type { i64, ptr, %struct.thread_notify, %struct.thread_notify, %union.pthread_mutex_t, %struct.iop_head_s, i32, i32, i32, %struct.thread_stats, [3 x %struct.io_queue_s], ptr, ptr, ptr, ptr, ptr, ptr, ptr, i32 }
%struct.thread_notify = type { %struct.event, i32 }
%struct.event = type { %struct.event_callback, %union.anon.0, i32, ptr, %union.anon.2, i16, i16, %struct.timeval }
%struct.event_callback = type { %struct.anon, i16, i8, i8, %union.anon, ptr }
%struct.anon = type { ptr, ptr }
%union.anon = type { ptr }
%union.anon.0 = type { %struct.anon.1 }
%struct.anon.1 = type { ptr, ptr }
%union.anon.2 = type { %struct.anon.3 }
%struct.anon.3 = type { %struct.anon.4, %struct.timeval }
%struct.anon.4 = type { ptr, ptr }
%struct.iop_head_s = type { ptr, ptr }
%struct.thread_stats = type { %union.pthread_mutex_t, i64, i64, i64, i64, i64, i64, i64, i64, i64, i64, i64, i64, i64, i64, i64, i64, i64, i64, i64, i64, i64, i64, i64, i64, i64, i64, i64, i64, i64, i64, [64 x %struct.slab_stats], [256 x i64], i64, i64, i64 }
%struct.slab_stats = type { i64, i64, i64, i64, i64, i64, i64, i64 }
%struct.io_queue_s = type { ptr, %struct.iop_head_s, ptr, i32 }

@settings = external global %struct.settings, align 8
@threads = internal global ptr null, align 8

; Function Attrs: nounwind uwtable
define dso_local void @threadlocal_stats_reset() #0 {
  %1 = alloca i32, align 4
  call void @llvm.lifetime.start.p0(i64 4, ptr %1) #8
  store i32 0, ptr %1, align 4, !tbaa !4
  br label %2

2:                                                ; preds = %213, %0
  %3 = load i32, ptr %1, align 4, !tbaa !4
  %4 = load i32, ptr getelementptr inbounds nuw (%struct.settings, ptr @settings, i32 0, i32 13), align 4, !tbaa !22
  %5 = icmp slt i32 %3, %4
  br i1 %5, label %6, label %216

6:                                                ; preds = %2
  %7 = load ptr, ptr @threads, align 8, !tbaa !8
  %8 = load i32, ptr %1, align 4, !tbaa !4
  %9 = sext i32 %8 to i64
  %10 = getelementptr inbounds %struct.LIBEVENT_THREAD, ptr %7, i64 %9
  %11 = getelementptr inbounds nuw %struct.LIBEVENT_THREAD, ptr %10, i32 0, i32 9
  %12 = getelementptr inbounds nuw %struct.thread_stats, ptr %11, i32 0, i32 0
  %13 = call i32 @pthread_mutex_lock(ptr noundef %12) #8
  %14 = load ptr, ptr @threads, align 8, !tbaa !8
  %15 = load i32, ptr %1, align 4, !tbaa !4
  %16 = sext i32 %15 to i64
  %17 = getelementptr inbounds %struct.LIBEVENT_THREAD, ptr %14, i64 %16
  %18 = getelementptr inbounds nuw %struct.LIBEVENT_THREAD, ptr %17, i32 0, i32 9
  %19 = getelementptr inbounds nuw %struct.thread_stats, ptr %18, i32 0, i32 1
  store i64 0, ptr %19, align 8, !tbaa !105
  %20 = load ptr, ptr @threads, align 8, !tbaa !8
  %21 = load i32, ptr %1, align 4, !tbaa !4
  %22 = sext i32 %21 to i64
  %23 = getelementptr inbounds %struct.LIBEVENT_THREAD, ptr %20, i64 %22
  %24 = getelementptr inbounds nuw %struct.LIBEVENT_THREAD, ptr %23, i32 0, i32 9
  %25 = getelementptr inbounds nuw %struct.thread_stats, ptr %24, i32 0, i32 2
  store i64 0, ptr %25, align 8, !tbaa !106
  %26 = load ptr, ptr @threads, align 8, !tbaa !8
  %27 = load i32, ptr %1, align 4, !tbaa !4
  %28 = sext i32 %27 to i64
  %29 = getelementptr inbounds %struct.LIBEVENT_THREAD, ptr %26, i64 %28
  %30 = getelementptr inbounds nuw %struct.LIBEVENT_THREAD, ptr %29, i32 0, i32 9
  %31 = getelementptr inbounds nuw %struct.thread_stats, ptr %30, i32 0, i32 3
  store i64 0, ptr %31, align 8, !tbaa !107
  %32 = load ptr, ptr @threads, align 8, !tbaa !8
  %33 = load i32, ptr %1, align 4, !tbaa !4
  %34 = sext i32 %33 to i64
  %35 = getelementptr inbounds %struct.LIBEVENT_THREAD, ptr %32, i64 %34
  %36 = getelementptr inbounds nuw %struct.LIBEVENT_THREAD, ptr %35, i32 0, i32 9
  %37 = getelementptr inbounds nuw %struct.thread_stats, ptr %36, i32 0, i32 4
  store i64 0, ptr %37, align 8, !tbaa !108
  %38 = load ptr, ptr @threads, align 8, !tbaa !8
  %39 = load i32, ptr %1, align 4, !tbaa !4
  %40 = sext i32 %39 to i64
  %41 = getelementptr inbounds %struct.LIBEVENT_THREAD, ptr %38, i64 %40
  %42 = getelementptr inbounds nuw %struct.LIBEVENT_THREAD, ptr %41, i32 0, i32 9
  %43 = getelementptr inbounds nuw %struct.thread_stats, ptr %42, i32 0, i32 5
  store i64 0, ptr %43, align 8, !tbaa !109
  %44 = load ptr, ptr @threads, align 8, !tbaa !8
  %45 = load i32, ptr %1, align 4, !tbaa !4
  %46 = sext i32 %45 to i64
  %47 = getelementptr inbounds %struct.LIBEVENT_THREAD, ptr %44, i64 %46
  %48 = getelementptr inbounds nuw %struct.LIBEVENT_THREAD, ptr %47, i32 0, i32 9
  %49 = getelementptr inbounds nuw %struct.thread_stats, ptr %48, i32 0, i32 6
  store i64 0, ptr %49, align 8, !tbaa !110
  %50 = load ptr, ptr @threads, align 8, !tbaa !8
  %51 = load i32, ptr %1, align 4, !tbaa !4
  %52 = sext i32 %51 to i64
  %53 = getelementptr inbounds %struct.LIBEVENT_THREAD, ptr %50, i64 %52
  %54 = getelementptr inbounds nuw %struct.LIBEVENT_THREAD, ptr %53, i32 0, i32 9
  %55 = getelementptr inbounds nuw %struct.thread_stats, ptr %54, i32 0, i32 7
  store i64 0, ptr %55, align 8, !tbaa !111
  %56 = load ptr, ptr @threads, align 8, !tbaa !8
  %57 = load i32, ptr %1, align 4, !tbaa !4
  %58 = sext i32 %57 to i64
  %59 = getelementptr inbounds %struct.LIBEVENT_THREAD, ptr %56, i64 %58
  %60 = getelementptr inbounds nuw %struct.LIBEVENT_THREAD, ptr %59, i32 0, i32 9
  %61 = getelementptr inbounds nuw %struct.thread_stats, ptr %60, i32 0, i32 8
  store i64 0, ptr %61, align 8, !tbaa !112
  %62 = load ptr, ptr @threads, align 8, !tbaa !8
  %63 = load i32, ptr %1, align 4, !tbaa !4
  %64 = sext i32 %63 to i64
  %65 = getelementptr inbounds %struct.LIBEVENT_THREAD, ptr %62, i64 %64
  %66 = getelementptr inbounds nuw %struct.LIBEVENT_THREAD, ptr %65, i32 0, i32 9
  %67 = getelementptr inbounds nuw %struct.thread_stats, ptr %66, i32 0, i32 9
  store i64 0, ptr %67, align 8, !tbaa !113
  %68 = load ptr, ptr @threads, align 8, !tbaa !8
  %69 = load i32, ptr %1, align 4, !tbaa !4
  %70 = sext i32 %69 to i64
  %71 = getelementptr inbounds %struct.LIBEVENT_THREAD, ptr %68, i64 %70
  %72 = getelementptr inbounds nuw %struct.LIBEVENT_THREAD, ptr %71, i32 0, i32 9
  %73 = getelementptr inbounds nuw %struct.thread_stats, ptr %72, i32 0, i32 10
  store i64 0, ptr %73, align 8, !tbaa !114
  %74 = load ptr, ptr @threads, align 8, !tbaa !8
  %75 = load i32, ptr %1, align 4, !tbaa !4
  %76 = sext i32 %75 to i64
  %77 = getelementptr inbounds %struct.LIBEVENT_THREAD, ptr %74, i64 %76
  %78 = getelementptr inbounds nuw %struct.LIBEVENT_THREAD, ptr %77, i32 0, i32 9
  %79 = getelementptr inbounds nuw %struct.thread_stats, ptr %78, i32 0, i32 11
  store i64 0, ptr %79, align 8, !tbaa !115
  %80 = load ptr, ptr @threads, align 8, !tbaa !8
  %81 = load i32, ptr %1, align 4, !tbaa !4
  %82 = sext i32 %81 to i64
  %83 = getelementptr inbounds %struct.LIBEVENT_THREAD, ptr %80, i64 %82
  %84 = getelementptr inbounds nuw %struct.LIBEVENT_THREAD, ptr %83, i32 0, i32 9
  %85 = getelementptr inbounds nuw %struct.thread_stats, ptr %84, i32 0, i32 12
  store i64 0, ptr %85, align 8, !tbaa !116
  %86 = load ptr, ptr @threads, align 8, !tbaa !8
  %87 = load i32, ptr %1, align 4, !tbaa !4
  %88 = sext i32 %87 to i64
  %89 = getelementptr inbounds %struct.LIBEVENT_THREAD, ptr %86, i64 %88
  %90 = getelementptr inbounds nuw %struct.LIBEVENT_THREAD, ptr %89, i32 0, i32 9
  %91 = getelementptr inbounds nuw %struct.thread_stats, ptr %90, i32 0, i32 13
  store i64 0, ptr %91, align 8, !tbaa !117
  %92 = load ptr, ptr @threads, align 8, !tbaa !8
  %93 = load i32, ptr %1, align 4, !tbaa !4
  %94 = sext i32 %93 to i64
  %95 = getelementptr inbounds %struct.LIBEVENT_THREAD, ptr %92, i64 %94
  %96 = getelementptr inbounds nuw %struct.LIBEVENT_THREAD, ptr %95, i32 0, i32 9
  %97 = getelementptr inbounds nuw %struct.thread_stats, ptr %96, i32 0, i32 14
  store i64 0, ptr %97, align 8, !tbaa !118
  %98 = load ptr, ptr @threads, align 8, !tbaa !8
  %99 = load i32, ptr %1, align 4, !tbaa !4
  %100 = sext i32 %99 to i64
  %101 = getelementptr inbounds %struct.LIBEVENT_THREAD, ptr %98, i64 %100
  %102 = getelementptr inbounds nuw %struct.LIBEVENT_THREAD, ptr %101, i32 0, i32 9
  %103 = getelementptr inbounds nuw %struct.thread_stats, ptr %102, i32 0, i32 15
  store i64 0, ptr %103, align 8, !tbaa !119
  %104 = load ptr, ptr @threads, align 8, !tbaa !8
  %105 = load i32, ptr %1, align 4, !tbaa !4
  %106 = sext i32 %105 to i64
  %107 = getelementptr inbounds %struct.LIBEVENT_THREAD, ptr %104, i64 %106
  %108 = getelementptr inbounds nuw %struct.LIBEVENT_THREAD, ptr %107, i32 0, i32 9
  %109 = getelementptr inbounds nuw %struct.thread_stats, ptr %108, i32 0, i32 16
  store i64 0, ptr %109, align 8, !tbaa !120
  %110 = load ptr, ptr @threads, align 8, !tbaa !8
  %111 = load i32, ptr %1, align 4, !tbaa !4
  %112 = sext i32 %111 to i64
  %113 = getelementptr inbounds %struct.LIBEVENT_THREAD, ptr %110, i64 %112
  %114 = getelementptr inbounds nuw %struct.LIBEVENT_THREAD, ptr %113, i32 0, i32 9
  %115 = getelementptr inbounds nuw %struct.thread_stats, ptr %114, i32 0, i32 17
  store i64 0, ptr %115, align 8, !tbaa !121
  %116 = load ptr, ptr @threads, align 8, !tbaa !8
  %117 = load i32, ptr %1, align 4, !tbaa !4
  %118 = sext i32 %117 to i64
  %119 = getelementptr inbounds %struct.LIBEVENT_THREAD, ptr %116, i64 %118
  %120 = getelementptr inbounds nuw %struct.LIBEVENT_THREAD, ptr %119, i32 0, i32 9
  %121 = getelementptr inbounds nuw %struct.thread_stats, ptr %120, i32 0, i32 18
  store i64 0, ptr %121, align 8, !tbaa !122
  %122 = load ptr, ptr @threads, align 8, !tbaa !8
  %123 = load i32, ptr %1, align 4, !tbaa !4
  %124 = sext i32 %123 to i64
  %125 = getelementptr inbounds %struct.LIBEVENT_THREAD, ptr %122, i64 %124
  %126 = getelementptr inbounds nuw %struct.LIBEVENT_THREAD, ptr %125, i32 0, i32 9
  %127 = getelementptr inbounds nuw %struct.thread_stats, ptr %126, i32 0, i32 19
  store i64 0, ptr %127, align 8, !tbaa !123
  %128 = load ptr, ptr @threads, align 8, !tbaa !8
  %129 = load i32, ptr %1, align 4, !tbaa !4
  %130 = sext i32 %129 to i64
  %131 = getelementptr inbounds %struct.LIBEVENT_THREAD, ptr %128, i64 %130
  %132 = getelementptr inbounds nuw %struct.LIBEVENT_THREAD, ptr %131, i32 0, i32 9
  %133 = getelementptr inbounds nuw %struct.thread_stats, ptr %132, i32 0, i32 20
  store i64 0, ptr %133, align 8, !tbaa !124
  %134 = load ptr, ptr @threads, align 8, !tbaa !8
  %135 = load i32, ptr %1, align 4, !tbaa !4
  %136 = sext i32 %135 to i64
  %137 = getelementptr inbounds %struct.LIBEVENT_THREAD, ptr %134, i64 %136
  %138 = getelementptr inbounds nuw %struct.LIBEVENT_THREAD, ptr %137, i32 0, i32 9
  %139 = getelementptr inbounds nuw %struct.thread_stats, ptr %138, i32 0, i32 21
  store i64 0, ptr %139, align 8, !tbaa !125
  %140 = load ptr, ptr @threads, align 8, !tbaa !8
  %141 = load i32, ptr %1, align 4, !tbaa !4
  %142 = sext i32 %141 to i64
  %143 = getelementptr inbounds %struct.LIBEVENT_THREAD, ptr %140, i64 %142
  %144 = getelementptr inbounds nuw %struct.LIBEVENT_THREAD, ptr %143, i32 0, i32 9
  %145 = getelementptr inbounds nuw %struct.thread_stats, ptr %144, i32 0, i32 22
  store i64 0, ptr %145, align 8, !tbaa !126
  %146 = load ptr, ptr @threads, align 8, !tbaa !8
  %147 = load i32, ptr %1, align 4, !tbaa !4
  %148 = sext i32 %147 to i64
  %149 = getelementptr inbounds %struct.LIBEVENT_THREAD, ptr %146, i64 %148
  %150 = getelementptr inbounds nuw %struct.LIBEVENT_THREAD, ptr %149, i32 0, i32 9
  %151 = getelementptr inbounds nuw %struct.thread_stats, ptr %150, i32 0, i32 23
  store i64 0, ptr %151, align 8, !tbaa !127
  %152 = load ptr, ptr @threads, align 8, !tbaa !8
  %153 = load i32, ptr %1, align 4, !tbaa !4
  %154 = sext i32 %153 to i64
  %155 = getelementptr inbounds %struct.LIBEVENT_THREAD, ptr %152, i64 %154
  %156 = getelementptr inbounds nuw %struct.LIBEVENT_THREAD, ptr %155, i32 0, i32 9
  %157 = getelementptr inbounds nuw %struct.thread_stats, ptr %156, i32 0, i32 24
  store i64 0, ptr %157, align 8, !tbaa !128
  %158 = load ptr, ptr @threads, align 8, !tbaa !8
  %159 = load i32, ptr %1, align 4, !tbaa !4
  %160 = sext i32 %159 to i64
  %161 = getelementptr inbounds %struct.LIBEVENT_THREAD, ptr %158, i64 %160
  %162 = getelementptr inbounds nuw %struct.LIBEVENT_THREAD, ptr %161, i32 0, i32 9
  %163 = getelementptr inbounds nuw %struct.thread_stats, ptr %162, i32 0, i32 25
  store i64 0, ptr %163, align 8, !tbaa !129
  %164 = load ptr, ptr @threads, align 8, !tbaa !8
  %165 = load i32, ptr %1, align 4, !tbaa !4
  %166 = sext i32 %165 to i64
  %167 = getelementptr inbounds %struct.LIBEVENT_THREAD, ptr %164, i64 %166
  %168 = getelementptr inbounds nuw %struct.LIBEVENT_THREAD, ptr %167, i32 0, i32 9
  %169 = getelementptr inbounds nuw %struct.thread_stats, ptr %168, i32 0, i32 26
  store i64 0, ptr %169, align 8, !tbaa !130
  %170 = load ptr, ptr @threads, align 8, !tbaa !8
  %171 = load i32, ptr %1, align 4, !tbaa !4
  %172 = sext i32 %171 to i64
  %173 = getelementptr inbounds %struct.LIBEVENT_THREAD, ptr %170, i64 %172
  %174 = getelementptr inbounds nuw %struct.LIBEVENT_THREAD, ptr %173, i32 0, i32 9
  %175 = getelementptr inbounds nuw %struct.thread_stats, ptr %174, i32 0, i32 27
  store i64 0, ptr %175, align 8, !tbaa !131
  %176 = load ptr, ptr @threads, align 8, !tbaa !8
  %177 = load i32, ptr %1, align 4, !tbaa !4
  %178 = sext i32 %177 to i64
  %179 = getelementptr inbounds %struct.LIBEVENT_THREAD, ptr %176, i64 %178
  %180 = getelementptr inbounds nuw %struct.LIBEVENT_THREAD, ptr %179, i32 0, i32 9
  %181 = getelementptr inbounds nuw %struct.thread_stats, ptr %180, i32 0, i32 28
  store i64 0, ptr %181, align 8, !tbaa !132
  %182 = load ptr, ptr @threads, align 8, !tbaa !8
  %183 = load i32, ptr %1, align 4, !tbaa !4
  %184 = sext i32 %183 to i64
  %185 = getelementptr inbounds %struct.LIBEVENT_THREAD, ptr %182, i64 %184
  %186 = getelementptr inbounds nuw %struct.LIBEVENT_THREAD, ptr %185, i32 0, i32 9
  %187 = getelementptr inbounds nuw %struct.thread_stats, ptr %186, i32 0, i32 29
  store i64 0, ptr %187, align 8, !tbaa !133
  %188 = load ptr, ptr @threads, align 8, !tbaa !8
  %189 = load i32, ptr %1, align 4, !tbaa !4
  %190 = sext i32 %189 to i64
  %191 = getelementptr inbounds %struct.LIBEVENT_THREAD, ptr %188, i64 %190
  %192 = getelementptr inbounds nuw %struct.LIBEVENT_THREAD, ptr %191, i32 0, i32 9
  %193 = getelementptr inbounds nuw %struct.thread_stats, ptr %192, i32 0, i32 30
  store i64 0, ptr %193, align 8, !tbaa !134
  %194 = load ptr, ptr @threads, align 8, !tbaa !8
  %195 = load i32, ptr %1, align 4, !tbaa !4
  %196 = sext i32 %195 to i64
  %197 = getelementptr inbounds %struct.LIBEVENT_THREAD, ptr %194, i64 %196
  %198 = getelementptr inbounds nuw %struct.LIBEVENT_THREAD, ptr %197, i32 0, i32 9
  %199 = getelementptr inbounds nuw %struct.thread_stats, ptr %198, i32 0, i32 31
  call void @llvm.memset.p0.i64(ptr align 8 %199, i8 0, i64 4096, i1 false)
  %200 = load ptr, ptr @threads, align 8, !tbaa !8
  %201 = load i32, ptr %1, align 4, !tbaa !4
  %202 = sext i32 %201 to i64
  %203 = getelementptr inbounds %struct.LIBEVENT_THREAD, ptr %200, i64 %202
  %204 = getelementptr inbounds nuw %struct.LIBEVENT_THREAD, ptr %203, i32 0, i32 9
  %205 = getelementptr inbounds nuw %struct.thread_stats, ptr %204, i32 0, i32 32
  call void @llvm.memset.p0.i64(ptr align 8 %205, i8 0, i64 2048, i1 false)
  %206 = load ptr, ptr @threads, align 8, !tbaa !8
  %207 = load i32, ptr %1, align 4, !tbaa !4
  %208 = sext i32 %207 to i64
  %209 = getelementptr inbounds %struct.LIBEVENT_THREAD, ptr %206, i64 %208
  %210 = getelementptr inbounds nuw %struct.LIBEVENT_THREAD, ptr %209, i32 0, i32 9
  %211 = getelementptr inbounds nuw %struct.thread_stats, ptr %210, i32 0, i32 0
  %212 = call i32 @pthread_mutex_unlock(ptr noundef %211) #8
  br label %213

213:                                              ; preds = %6
  %214 = load i32, ptr %1, align 4, !tbaa !4
  %215 = add nsw i32 %214, 1
  store i32 %215, ptr %1, align 4, !tbaa !4
  br label %2, !llvm.loop !135

216:                                              ; preds = %2
  call void @llvm.lifetime.end.p0(i64 4, ptr %1) #8
  ret void
}