; Function Attrs: nounwind uwtable
define dso_local void @threadlocal_stats_reset() local_unnamed_addr #0 {
  %1 = load i32, ptr getelementptr inbounds nuw (i8, ptr @settings, i64 84), align 4, !tbaa !17
  %2 = icmp sgt i32 %1, 0
  br i1 %2, label %.lr.ph, label %._crit_edge

.lr.ph:                                           ; preds = %0, %.lr.ph
  %indvars.iv = phi i64 [ %indvars.iv.next, %.lr.ph ], [ 0, %0 ]
  %3 = load ptr, ptr @threads, align 8, !tbaa !4
  %4 = getelementptr inbounds nuw %struct.LIBEVENT_THREAD, ptr %3, i64 %indvars.iv, i32 9
  %5 = tail call i32 @pthread_mutex_lock(ptr noundef nonnull %4) #15
  %6 = load ptr, ptr @threads, align 8, !tbaa !4
  %7 = getelementptr inbounds nuw %struct.LIBEVENT_THREAD, ptr %6, i64 %indvars.iv, i32 9, i32 1
  %8 = getelementptr inbounds nuw %struct.LIBEVENT_THREAD, ptr %6, i64 %indvars.iv, i32 9
  tail call void @llvm.memset.p0.i64(ptr noundef nonnull align 8 dereferenceable(6384) %7, i8 0, i64 6384, i1 false)
  %9 = tail call i32 @pthread_mutex_unlock(ptr noundef nonnull %8) #15
  %indvars.iv.next = add nuw nsw i64 %indvars.iv, 1
  %10 = load i32, ptr getelementptr inbounds nuw (i8, ptr @settings, i64 84), align 4, !tbaa !17
  %11 = sext i32 %10 to i64
  %12 = icmp slt i64 %indvars.iv.next, %11
  br i1 %12, label %.lr.ph, label %._crit_edge, !llvm.loop !98

._crit_edge:                                      ; preds = %.lr.ph, %0
  ret void
}